target datalayout = "e-m:e-p270:32:32-p271:32:32-p272:64:64-i64:64-i128:128-f80:128-n8:16:32:64-S128"
target triple = "x86_64-pc-linux-gnu"

%struct.slurm_conf_t = type { i64, ptr, i16, ptr, ptr, ptr, ptr, ptr, i16, ptr, ptr, ptr, ptr, ptr, ptr, ptr, i16, ptr, ptr, ptr, ptr, i16, ptr, ptr, ptr, i64, ptr, ptr, ptr, ptr, i16, ptr, ptr, i16, i32, ptr, i32, ptr, i32, i32, ptr, ptr, i64, i64, ptr, i16, i16, ptr, i32, i32, ptr, i32, ptr, i32, i16, i16, i16, ptr, i16, i16, ptr, ptr, i32, i16, i16, ptr, i32, i16, ptr, ptr, ptr, ptr, i16, ptr, ptr, ptr, ptr, i32, ptr, ptr, ptr, ptr, i16, i16, ptr, i32, i32, i32, i16, i16, ptr, ptr, i16, ptr, ptr, i32, i32, i32, i32, i32, i64, i32, i32, i16, ptr, ptr, i32, ptr, ptr, ptr, i16, i32, ptr, ptr, i16, ptr, ptr, i32, i16, ptr, ptr, ptr, ptr, i32, i32, i16, i16, i32, ptr, i16, ptr, i32, i32, i32, i32, i32, i32, ptr, i16, ptr, ptr, i32, i16, ptr, i32, i16, i16, ptr, ptr, ptr, i16, ptr, ptr, ptr, ptr, i16, i16, ptr, i16, ptr, i16, ptr, i16, ptr, i16, ptr, ptr, ptr, ptr, i16, ptr, ptr, ptr, i32, ptr, i32, ptr, ptr, i16, ptr, ptr, i32, i16, ptr, ptr, i16, i16, ptr, i16, ptr, ptr, ptr, i32, ptr, i16, i16, ptr, ptr, ptr, ptr, ptr, ptr, ptr, ptr, i16, i32, i16, ptr, ptr, ptr, ptr, i32, ptr, ptr, ptr, i16, ptr, ptr, ptr, i16, ptr, i16, ptr, i16, i16, ptr }
%struct.data_s = type { i32, i32, %union.anon }
%union.anon = type { ptr }
%struct.data_list_s = type { i32, i64, ptr, ptr }
%struct.data_list_node_s = type { i32, ptr, ptr, ptr }

@slurm_conf = external global %struct.slurm_conf_t, align 8
@.str.29 = private unnamed_addr constant [2 x i8] c"/\00", align 1
@.str.51 = private unnamed_addr constant [46 x i8] c"DATA: %s: %pD resolved dictionary path to %pD\00", align 1
@__func__.data_resolve_dict_path = private unnamed_addr constant [23 x i8] c"data_resolve_dict_path\00", align 1
@.str.52 = private unnamed_addr constant [48 x i8] c"DATA: %s: %pD failed to resolve dictionary path\00", align 1

; Function Attrs: nounwind uwtable
define internal void @_check_data_list_node_magic(ptr noundef %0) #0 {
  %2 = alloca ptr, align 8
  store ptr %0, ptr %2, align 8
  ret void
}

; Function Attrs: nounwind uwtable
define dso_local ptr @data_dict_find_first(ptr noundef %0, ptr noundef %1, ptr noundef %2) #0 {
  %4 = alloca ptr, align 8
  %5 = alloca ptr, align 8
  %6 = alloca ptr, align 8
  %7 = alloca ptr, align 8
  %8 = alloca ptr, align 8
  %9 = alloca i32, align 4
  store ptr %0, ptr %5, align 8
  store ptr %1, ptr %6, align 8
  store ptr %2, ptr %7, align 8
  call void @llvm.lifetime.start.p0(i64 8, ptr %8) #10
  %10 = load ptr, ptr %5, align 8
  call void @_check_magic(ptr noundef %10)
  %11 = load ptr, ptr %5, align 8
  %12 = icmp ne ptr %11, null
  br i1 %12, label %14, label %13

13:                                               ; preds = %3
  store ptr null, ptr %4, align 8
  store i32 1, ptr %9, align 4
  br label %64

14:                                               ; preds = %3
  %15 = load ptr, ptr %5, align 8
  %16 = getelementptr inbounds nuw %struct.data_s, ptr %15, i32 0, i32 1
  %17 = load i32, ptr %16, align 4
  %18 = icmp ne i32 %17, 65283
  br i1 %18, label %19, label %20

19:                                               ; preds = %14
  store ptr null, ptr %4, align 8
  store i32 1, ptr %9, align 4
  br label %64

20:                                               ; preds = %14
  %21 = load ptr, ptr %5, align 8
  %22 = getelementptr inbounds nuw %struct.data_s, ptr %21, i32 0, i32 2
  %23 = load ptr, ptr %22, align 8
  %24 = getelementptr inbounds nuw %struct.data_list_s, ptr %23, i32 0, i32 1
  %25 = load i64, ptr %24, align 8
  %26 = icmp ne i64 %25, 0
  br i1 %26, label %28, label %27

27:                                               ; preds = %20
  store ptr null, ptr %4, align 8
  store i32 1, ptr %9, align 4
  br label %64

28:                                               ; preds = %20
  %29 = load ptr, ptr %5, align 8
  %30 = getelementptr inbounds nuw %struct.data_s, ptr %29, i32 0, i32 2
  %31 = load ptr, ptr %30, align 8
  call void @_check_data_list_magic(ptr noundef %31)
  %32 = load ptr, ptr %5, align 8
  %33 = getelementptr inbounds nuw %struct.data_s, ptr %32, i32 0, i32 2
  %34 = load ptr, ptr %33, align 8
  %35 = getelementptr inbounds nuw %struct.data_list_s, ptr %34, i32 0, i32 2
  %36 = load ptr, ptr %35, align 8
  store ptr %36, ptr %8, align 8
  br label %37

37:                                               ; preds = %52, %28
  %38 = load ptr, ptr %8, align 8
  %39 = icmp ne ptr %38, null
  br i1 %39, label %40, label %56

40:                                               ; preds = %37
  %41 = load ptr, ptr %8, align 8
  call void @_check_data_list_node_magic(ptr noundef %41)
  %42 = load ptr, ptr %6, align 8
  %43 = load ptr, ptr %8, align 8
  %44 = getelementptr inbounds nuw %struct.data_list_node_s, ptr %43, i32 0, i32 3
  %45 = load ptr, ptr %44, align 8
  %46 = load ptr, ptr %8, align 8
  %47 = getelementptr inbounds nuw %struct.data_list_node_s, ptr %46, i32 0, i32 2
  %48 = load ptr, ptr %47, align 8
  %49 = load ptr, ptr %7, align 8
  %50 = call zeroext i1 %42(ptr noundef %45, ptr noundef %48, ptr noundef %49)
  br i1 %50, label %51, label %52

51:                                               ; preds = %40
  br label %56

52:                                               ; preds = %40
  %53 = load ptr, ptr %8, align 8
  %54 = getelementptr inbounds nuw %struct.data_list_node_s, ptr %53, i32 0, i32 1
  %55 = load ptr, ptr %54, align 8
  store ptr %55, ptr %8, align 8
  br label %37, !llvm.loop !17

56:                                               ; preds = %51, %37
  %57 = load ptr, ptr %8, align 8
  %58 = icmp ne ptr %57, null
  br i1 %58, label %59, label %63

59:                                               ; preds = %56
  %60 = load ptr, ptr %8, align 8
  %61 = getelementptr inbounds nuw %struct.data_list_node_s, ptr %60, i32 0, i32 2
  %62 = load ptr, ptr %61, align 8
  store ptr %62, ptr %4, align 8
  store i32 1, ptr %9, align 4
  br label %64

63:                                               ; preds = %56
  store ptr null, ptr %4, align 8
  store i32 1, ptr %9, align 4
  br label %64

64:                                               ; preds = %63, %59, %27, %19, %13
  call void @llvm.lifetime.end.p0(i64 8, ptr %8) #10
  %65 = load ptr, ptr %4, align 8
  ret ptr %65
}

; Function Attrs: nounwind uwtable
define internal void @_check_data_list_magic(ptr noundef %0) #0 {
  %2 = alloca ptr, align 8
  store ptr %0, ptr %2, align 8
  ret void
}

; Function Attrs: nounwind uwtable
define dso_local ptr @data_key_get(ptr noundef %0, ptr noundef %1) #0 {
  %3 = alloca ptr, align 8
  %4 = alloca ptr, align 8
  store ptr %0, ptr %3, align 8
  store ptr %1, ptr %4, align 8
  %5 = load ptr, ptr %3, align 8
  %6 = load ptr, ptr %4, align 8
  %7 = call ptr @data_dict_find_first(ptr noundef %5, ptr noundef @_match_string, ptr noundef %6)
  ret ptr %7
}

; Function Attrs: nounwind uwtable
define internal void @_check_magic(ptr noundef %0) #0 {
  %2 = alloca ptr, align 8
  store ptr %0, ptr %2, align 8
  %3 = load ptr, ptr %2, align 8
  %4 = icmp ne ptr %3, null
  br i1 %4, label %6, label %5

5:                                                ; preds = %1
  br label %29

6:                                                ; preds = %1
  %7 = load i64, ptr getelementptr inbounds nuw (%struct.slurm_conf_t, ptr @slurm_conf, i32 0, i32 42), align 8
  %8 = and i64 %7, 256
  %9 = icmp ne i64 %8, 0
  br i1 %9, label %10, label %29

10:                                               ; preds = %6
  %11 = load ptr, ptr %2, align 8
  %12 = getelementptr inbounds nuw %struct.data_s, ptr %11, i32 0, i32 1
  %13 = load i32, ptr %12, align 4
  %14 = icmp eq i32 %13, 65282
  br i1 %14, label %15, label %19

15:                                               ; preds = %10
  %16 = load ptr, ptr %2, align 8
  %17 = getelementptr inbounds nuw %struct.data_s, ptr %16, i32 0, i32 2
  %18 = load ptr, ptr %17, align 8
  call void @_check_data_list_magic(ptr noundef %18)
  br label %19

19:                                               ; preds = %15, %10
  %20 = load ptr, ptr %2, align 8
  %21 = getelementptr inbounds nuw %struct.data_s, ptr %20, i32 0, i32 1
  %22 = load i32, ptr %21, align 4
  %23 = icmp eq i32 %22, 65283
  br i1 %23, label %24, label %28

24:                                               ; preds = %19
  %25 = load ptr, ptr %2, align 8
  %26 = getelementptr inbounds nuw %struct.data_s, ptr %25, i32 0, i32 2
  %27 = load ptr, ptr %26, align 8
  call void @_check_data_list_magic(ptr noundef %27)
  br label %28

28:                                               ; preds = %24, %19
  br label %29

29:                                               ; preds = %5, %28, %6
  ret void
}

; Function Attrs: nounwind uwtable
define dso_local ptr @data_resolve_dict_path(ptr noundef %0, ptr noundef %1) #0 {
  %3 = alloca ptr, align 8
  %4 = alloca ptr, align 8
  %5 = alloca ptr, align 8
  %6 = alloca ptr, align 8
  %7 = alloca ptr, align 8
  %8 = alloca ptr, align 8
  %9 = alloca ptr, align 8
  %10 = alloca [1024 x i8], align 16
  %11 = alloca i64, align 8
  %12 = alloca i32, align 4
  %13 = alloca i32, align 4
  store ptr %0, ptr %4, align 8
  store ptr %1, ptr %5, align 8
  call void @llvm.lifetime.start.p0(i64 8, ptr %6) #10
  %14 = load ptr, ptr %4, align 8
  store ptr %14, ptr %6, align 8
  call void @llvm.lifetime.start.p0(i64 8, ptr %7) #10
  store ptr null, ptr %7, align 8
  call void @llvm.lifetime.start.p0(i64 8, ptr %8) #10
  store ptr null, ptr %8, align 8
  call void @llvm.lifetime.start.p0(i64 8, ptr %9) #10
  call void @llvm.lifetime.start.p0(i64 1024, ptr %10) #10
  call void @llvm.lifetime.start.p0(i64 8, ptr %11) #10
  %15 = load ptr, ptr %5, align 8
  %16 = call i64 @strlen(ptr noundef %15) #11
  store i64 %16, ptr %11, align 8
  %17 = load ptr, ptr %4, align 8
  call void @_check_magic(ptr noundef %17)
  %18 = load ptr, ptr %4, align 8
  %19 = icmp ne ptr %18, null
  br i1 %19, label %21, label %20

20:                                               ; preds = %2
  store ptr null, ptr %3, align 8
  store i32 1, ptr %12, align 4
  br label %155

21:                                               ; preds = %2
  %22 = load i64, ptr %11, align 8
  %23 = icmp ult i64 %22, 1024
  br i1 %23, label %24, label %29

24:                                               ; preds = %21
  %25 = getelementptr inbounds [1024 x i8], ptr %10, i64 0, i64 0
  %26 = load ptr, ptr %5, align 8
  %27 = load i64, ptr %11, align 8
  %28 = add i64 %27, 1
  call void @llvm.memcpy.p0.p0.i64(ptr align 16 %25, ptr align 1 %26, i64 %28, i1 false)
  store ptr %25, ptr %9, align 8
  br label %32

29:                                               ; preds = %21
  %30 = load ptr, ptr %5, align 8
  %31 = call ptr @xstrdup(ptr noundef %30)
  store ptr %31, ptr %9, align 8
  br label %32

32:                                               ; preds = %29, %24
  %33 = load ptr, ptr %9, align 8
  %34 = call ptr @strtok_r(ptr noundef %33, ptr noundef @.str.29, ptr noundef %7) #10
  store ptr %34, ptr %8, align 8
  br label %35

35:                                               ; preds = %116, %32
  %36 = load ptr, ptr %8, align 8
  %37 = icmp ne ptr %36, null
  br i1 %37, label %38, label %41

38:                                               ; preds = %35
  %39 = load ptr, ptr %6, align 8
  %40 = icmp ne ptr %39, null
  br label %41

41:                                               ; preds = %38, %35
  %42 = phi i1 [ false, %35 ], [ %40, %38 ]
  br i1 %42, label %43, label %118

43:                                               ; preds = %41
  br label %44

44:                                               ; preds = %63, %43
  %45 = load ptr, ptr %8, align 8
  %46 = load i8, ptr %45, align 1
  %47 = sext i8 %46 to i32
  %48 = icmp ne i32 %47, 0
  br i1 %48, label %49, label %61

49:                                               ; preds = %44
  %50 = call ptr @__ctype_b_loc() #13
  %51 = load ptr, ptr %50, align 8
  %52 = load ptr, ptr %8, align 8
  %53 = load i8, ptr %52, align 1
  %54 = sext i8 %53 to i32
  %55 = sext i32 %54 to i64
  %56 = getelementptr inbounds i16, ptr %51, i64 %55
  %57 = load i16, ptr %56, align 2
  %58 = zext i16 %57 to i32
  %59 = and i32 %58, 8192
  %60 = icmp ne i32 %59, 0
  br label %61

61:                                               ; preds = %49, %44
  %62 = phi i1 [ false, %44 ], [ %60, %49 ]
  br i1 %62, label %63, label %66

63:                                               ; preds = %61
  %64 = load ptr, ptr %8, align 8
  %65 = getelementptr inbounds nuw i8, ptr %64, i32 1
  store ptr %65, ptr %8, align 8
  br label %44, !llvm.loop !29

66:                                               ; preds = %61
  call void @llvm.lifetime.start.p0(i64 4, ptr %13) #10
  %67 = load ptr, ptr %8, align 8
  %68 = call i64 @strlen(ptr noundef %67) #11
  %69 = sub i64 %68, 1
  %70 = trunc i64 %69 to i32
  store i32 %70, ptr %13, align 4
  br label %71

71:                                               ; preds = %97, %66
  %72 = load i32, ptr %13, align 4
  %73 = icmp sge i32 %72, 0
  br i1 %73, label %75, label %74

74:                                               ; preds = %71
  store i32 6, ptr %12, align 4
  br label %100

75:                                               ; preds = %71
  %76 = call ptr @__ctype_b_loc() #13
  %77 = load ptr, ptr %76, align 8
  %78 = load ptr, ptr %8, align 8
  %79 = load i32, ptr %13, align 4
  %80 = sext i32 %79 to i64
  %81 = getelementptr inbounds i8, ptr %78, i64 %80
  %82 = load i8, ptr %81, align 1
  %83 = sext i8 %82 to i32
  %84 = sext i32 %83 to i64
  %85 = getelementptr inbounds i16, ptr %77, i64 %84
  %86 = load i16, ptr %85, align 2
  %87 = zext i16 %86 to i32
  %88 = and i32 %87, 8192
  %89 = icmp ne i32 %88, 0
  br i1 %89, label %90, label %95

90:                                               ; preds = %75
  %91 = load ptr, ptr %8, align 8
  %92 = load i32, ptr %13, align 4
  %93 = sext i32 %92 to i64
  %94 = getelementptr inbounds i8, ptr %91, i64 %93
  store i8 0, ptr %94, align 1
  br label %96

95:                                               ; preds = %75
  store i32 6, ptr %12, align 4
  br label %100

96:                                               ; preds = %90
  br label %97

97:                                               ; preds = %96
  %98 = load i32, ptr %13, align 4
  %99 = add nsw i32 %98, -1
  store i32 %99, ptr %13, align 4
  br label %71, !llvm.loop !30

100:                                              ; preds = %95, %74
  call void @llvm.lifetime.end.p0(i64 4, ptr %13) #10
  br label %101

101:                                              ; preds = %100
  %102 = load ptr, ptr %6, align 8
  %103 = icmp ne ptr %102, null
  br i1 %103, label %104, label %109

104:                                              ; preds = %101
  %105 = load ptr, ptr %6, align 8
  %106 = getelementptr inbounds nuw %struct.data_s, ptr %105, i32 0, i32 1
  %107 = load i32, ptr %106, align 4
  %108 = icmp ne i32 %107, 65283
  br i1 %108, label %109, label %110

109:                                              ; preds = %104, %101
  store ptr null, ptr %6, align 8
  br label %118

110:                                              ; preds = %104
  %111 = load ptr, ptr %6, align 8
  %112 = load ptr, ptr %8, align 8
  %113 = call ptr @data_key_get(ptr noundef %111, ptr noundef %112)
  store ptr %113, ptr %6, align 8
  %114 = icmp ne ptr %113, null
  br i1 %114, label %116, label %115

115:                                              ; preds = %110
  br label %118

116:                                              ; preds = %110
  %117 = call ptr @strtok_r(ptr noundef null, ptr noundef @.str.29, ptr noundef %7) #10
  store ptr %117, ptr %8, align 8
  br label %35, !llvm.loop !31

118:                                              ; preds = %115, %109, %41
  %119 = load ptr, ptr %9, align 8
  %120 = getelementptr inbounds [1024 x i8], ptr %10, i64 0, i64 0
  %121 = icmp ne ptr %119, %120
  br i1 %121, label %122, label %123

122:                                              ; preds = %118
  call void @slurm_xfree(ptr noundef %9)
  br label %123

123:                                              ; preds = %122, %118
  %124 = load ptr, ptr %6, align 8
  %125 = icmp ne ptr %124, null
  br i1 %125, label %126, label %140

126:                                              ; preds = %123
  br label %127

127:                                              ; preds = %126
  %128 = load i64, ptr getelementptr inbounds nuw (%struct.slurm_conf_t, ptr @slurm_conf, i32 0, i32 42), align 8
  %129 = and i64 %128, 256
  %130 = icmp ne i64 %129, 0
  br i1 %130, label %131, label %137

131:                                              ; preds = %127
  %132 = load ptr, ptr %5, align 8
  %133 = load ptr, ptr %5, align 8
  %134 = call i64 @strlen(ptr noundef %133) #11
  %135 = load ptr, ptr %4, align 8
  %136 = load ptr, ptr %6, align 8
  call void (ptr, i64, i64, i64, ptr, ...) @_log_flag_hex(ptr noundef %132, i64 noundef %134, i64 noundef -1, i64 noundef -1, ptr noundef @.str.51, ptr noundef @__func__.data_resolve_dict_path, ptr noundef %135, ptr noundef %136)
  br label %137

137:                                              ; preds = %131, %127
  br label %138

138:                                              ; preds = %137
  br label %139

139:                                              ; preds = %138
  br label %153

140:                                              ; preds = %123
  br label %141

141:                                              ; preds = %140
  %142 = load i64, ptr getelementptr inbounds nuw (%struct.slurm_conf_t, ptr @slurm_conf, i32 0, i32 42), align 8
  %143 = and i64 %142, 256
  %144 = icmp ne i64 %143, 0
  br i1 %144, label %145, label %150

145:                                              ; preds = %141
  %146 = load ptr, ptr %5, align 8
  %147 = load ptr, ptr %5, align 8
  %148 = call i64 @strlen(ptr noundef %147) #11
  %149 = load ptr, ptr %4, align 8
  call void (ptr, i64, i64, i64, ptr, ...) @_log_flag_hex(ptr noundef %146, i64 noundef %148, i64 noundef -1, i64 noundef -1, ptr noundef @.str.52, ptr noundef @__func__.data_resolve_dict_path, ptr noundef %149)
  br label %150

150:                                              ; preds = %145, %141
  br label %151

151:                                              ; preds = %150
  br label %152

152:                                              ; preds = %151
  br label %153

153:                                              ; preds = %152, %139
  %154 = load ptr, ptr %6, align 8
  store ptr %154, ptr %3, align 8
  store i32 1, ptr %12, align 4
  br label %155

155:                                              ; preds = %153, %20
  call void @llvm.lifetime.end.p0(i64 8, ptr %11) #10
  call void @llvm.lifetime.end.p0(i64 1024, ptr %10) #10
  call void @llvm.lifetime.end.p0(i64 8, ptr %9) #10
  call void @llvm.lifetime.end.p0(i64 8, ptr %8) #10
  call void @llvm.lifetime.end.p0(i64 8, ptr %7) #10
  call void @llvm.lifetime.end.p0(i64 8, ptr %6) #10
  %156 = load ptr, ptr %3, align 8
  ret ptr %156
}