; Function Attrs: nounwind uwtable
define dso_local ptr @data_resolve_dict_path(ptr noundef %0, ptr noundef %1) local_unnamed_addr #0 {
  %3 = alloca ptr, align 8
  %4 = alloca ptr, align 8
  %5 = alloca [1024 x i8], align 16
  call void @llvm.lifetime.start.p0(i64 8, ptr nonnull %3) #16
  store ptr null, ptr %3, align 8
  call void @llvm.lifetime.start.p0(i64 8, ptr nonnull %4) #16
  call void @llvm.lifetime.start.p0(i64 1024, ptr nonnull %5) #16
  %6 = tail call i64 @strlen(ptr noundef nonnull dereferenceable(1) %1) #17
  %.not = icmp eq ptr %0, null
  br i1 %.not, label %71, label %7

7:                                                ; preds = %2
  %8 = icmp ult i64 %6, 1024
  br i1 %8, label %9, label %11

9:                                                ; preds = %7
  %10 = add nuw nsw i64 %6, 1
  call void @llvm.memcpy.p0.p0.i64(ptr noundef nonnull align 16 dereferenceable(1) %5, ptr noundef nonnull align 1 dereferenceable(1) %1, i64 %10, i1 false)
  br label %13

11:                                               ; preds = %7
  %12 = tail call ptr @xstrdup(ptr noundef nonnull %1) #16
  br label %13

13:                                               ; preds = %11, %9
  %storemerge = phi ptr [ %12, %11 ], [ %5, %9 ]
  store ptr %storemerge, ptr %4, align 8
  %14 = call ptr @strtok_r(ptr noundef %storemerge, ptr noundef nonnull @.str.29, ptr noundef nonnull %3) #16
  %.not4264 = icmp eq ptr %14, null
  br i1 %.not4264, label %data_key_get.exit.thread, label %.preheader

.preheader:                                       ; preds = %13, %58
  %.03466 = phi ptr [ %59, %58 ], [ %14, %13 ]
  %.03565 = phi ptr [ %57, %58 ], [ %0, %13 ]
  %15 = load i8, ptr %.03466, align 1
  %.not4356 = icmp eq i8 %15, 0
  br i1 %.not4356, label %.critedge, label %.lr.ph

.lr.ph:                                           ; preds = %.preheader
  %16 = tail call ptr @__ctype_b_loc() #19
  %17 = load ptr, ptr %16, align 8
  br label %18

18:                                               ; preds = %.lr.ph, %24
  %19 = phi i8 [ %15, %.lr.ph ], [ %26, %24 ]
  %.157 = phi ptr [ %.03466, %.lr.ph ], [ %25, %24 ]
  %20 = sext i8 %19 to i64
  %21 = getelementptr inbounds i16, ptr %17, i64 %20
  %22 = load i16, ptr %21, align 2
  %23 = and i16 %22, 8192
  %.not44 = icmp eq i16 %23, 0
  br i1 %.not44, label %.critedge, label %24

24:                                               ; preds = %18
  %25 = getelementptr inbounds nuw i8, ptr %.157, i64 1
  %26 = load i8, ptr %25, align 1
  %.not43 = icmp eq i8 %26, 0
  br i1 %.not43, label %.critedge, label %18, !llvm.loop !30

.critedge:                                        ; preds = %18, %24, %.preheader
  %.1.lcssa = phi ptr [ %.03466, %.preheader ], [ %25, %24 ], [ %.157, %18 ]
  %27 = call i64 @strlen(ptr noundef nonnull dereferenceable(1) %.1.lcssa) #17
  %28 = trunc i64 %27 to i32
  %.060 = add i32 %28, -1
  %29 = icmp sgt i32 %.060, -1
  br i1 %29, label %.lr.ph62, label %._crit_edge

.lr.ph62:                                         ; preds = %.critedge
  %30 = tail call ptr @__ctype_b_loc() #19
  br label %31

31:                                               ; preds = %.lr.ph62, %40
  %.061 = phi i32 [ %.060, %.lr.ph62 ], [ %.0, %40 ]
  %32 = load ptr, ptr %30, align 8
  %33 = zext nneg i32 %.061 to i64
  %34 = getelementptr inbounds nuw i8, ptr %.1.lcssa, i64 %33
  %35 = load i8, ptr %34, align 1
  %36 = sext i8 %35 to i64
  %37 = getelementptr inbounds i16, ptr %32, i64 %36
  %38 = load i16, ptr %37, align 2
  %39 = and i16 %38, 8192
  %.not45 = icmp eq i16 %39, 0
  br i1 %.not45, label %._crit_edge, label %40

40:                                               ; preds = %31
  store i8 0, ptr %34, align 1
  %.0 = add nsw i32 %.061, -1
  %41 = icmp sgt i32 %.061, 0
  br i1 %41, label %31, label %._crit_edge, !llvm.loop !31

._crit_edge:                                      ; preds = %31, %40, %.critedge
  %42 = getelementptr inbounds nuw i8, ptr %.03565, i64 4
  %43 = load i32, ptr %42, align 4
  %.not46 = icmp eq i32 %43, 65283
  br i1 %.not46, label %44, label %data_key_get.exit.thread

44:                                               ; preds = %._crit_edge
  %45 = getelementptr inbounds nuw i8, ptr %.03565, i64 8
  %46 = load ptr, ptr %45, align 8
  %47 = getelementptr inbounds nuw i8, ptr %46, i64 8
  %48 = load i64, ptr %47, align 8
  %.not19.i.i = icmp eq i64 %48, 0
  br i1 %.not19.i.i, label %data_key_get.exit.thread, label %49

49:                                               ; preds = %44
  %50 = getelementptr inbounds nuw i8, ptr %46, i64 16
  %.021.i.i = load ptr, ptr %50, align 8
  %.not2022.i.i = icmp eq ptr %.021.i.i, null
  br i1 %.not2022.i.i, label %data_key_get.exit.thread, label %.lr.ph.i.i

.lr.ph.i.i:                                       ; preds = %49, %54
  %.023.i.i = phi ptr [ %.0.i.i, %54 ], [ %.021.i.i, %49 ]
  %51 = getelementptr inbounds nuw i8, ptr %.023.i.i, i64 24
  %52 = load ptr, ptr %51, align 8
  %53 = call i32 @xstrcmp(ptr noundef %52, ptr noundef nonnull %.1.lcssa) #16
  %.not.i2.i = icmp eq i32 %53, 0
  br i1 %.not.i2.i, label %data_key_get.exit, label %54

54:                                               ; preds = %.lr.ph.i.i
  %55 = getelementptr inbounds nuw i8, ptr %.023.i.i, i64 8
  %.0.i.i = load ptr, ptr %55, align 8
  %.not20.i.i = icmp eq ptr %.0.i.i, null
  br i1 %.not20.i.i, label %data_key_get.exit.thread, label %.lr.ph.i.i, !llvm.loop !16

data_key_get.exit:                                ; preds = %.lr.ph.i.i
  %56 = getelementptr inbounds nuw i8, ptr %.023.i.i, i64 16
  %57 = load ptr, ptr %56, align 8
  %.not47 = icmp eq ptr %57, null
  br i1 %.not47, label %data_key_get.exit.thread, label %58

58:                                               ; preds = %data_key_get.exit
  %59 = call ptr @strtok_r(ptr noundef null, ptr noundef nonnull @.str.29, ptr noundef nonnull %3) #16
  %.not42 = icmp eq ptr %59, null
  br i1 %.not42, label %data_key_get.exit.thread, label %.preheader, !llvm.loop !32

data_key_get.exit.thread:                         ; preds = %58, %data_key_get.exit, %._crit_edge, %44, %49, %54, %13
  %.136 = phi ptr [ %0, %13 ], [ null, %54 ], [ %57, %58 ], [ null, %data_key_get.exit ], [ null, %._crit_edge ], [ null, %44 ], [ null, %49 ]
  %60 = load ptr, ptr %4, align 8
  %.not48 = icmp eq ptr %60, %5
  br i1 %.not48, label %62, label %61

61:                                               ; preds = %data_key_get.exit.thread
  call void @slurm_xfree(ptr noundef nonnull %4) #16
  br label %62

62:                                               ; preds = %61, %data_key_get.exit.thread
  %.not49 = icmp eq ptr %.136, null
  %63 = load i64, ptr getelementptr inbounds nuw (i8, ptr @slurm_conf, i64 320), align 8
  %64 = and i64 %63, 256
  %.not50 = icmp eq i64 %64, 0
  br i1 %.not49, label %68, label %65

65:                                               ; preds = %62
  br i1 %.not50, label %71, label %66

66:                                               ; preds = %65
  %67 = call i64 @strlen(ptr noundef nonnull dereferenceable(1) %1) #17
  call void (ptr, i64, i64, i64, ptr, ...) @_log_flag_hex(ptr noundef nonnull %1, i64 noundef %67, i64 noundef -1, i64 noundef -1, ptr noundef nonnull @.str.51, ptr noundef nonnull @__func__.data_resolve_dict_path, ptr noundef nonnull %0, ptr noundef nonnull %.136) #16
  br label %71

68:                                               ; preds = %62
  br i1 %.not50, label %71, label %69

69:                                               ; preds = %68
  %70 = call i64 @strlen(ptr noundef nonnull dereferenceable(1) %1) #17
  call void (ptr, i64, i64, i64, ptr, ...) @_log_flag_hex(ptr noundef nonnull %1, i64 noundef %70, i64 noundef -1, i64 noundef -1, ptr noundef nonnull @.str.52, ptr noundef nonnull @__func__.data_resolve_dict_path, ptr noundef nonnull %0) #16
  br label %71

71:                                               ; preds = %66, %65, %69, %68, %2
  %.033 = phi ptr [ null, %2 ], [ null, %68 ], [ null, %69 ], [ %.136, %65 ], [ %.136, %66 ]
  call void @llvm.lifetime.end.p0(i64 1024, ptr nonnull %5) #16
  call void @llvm.lifetime.end.p0(i64 8, ptr nonnull %4) #16
  call void @llvm.lifetime.end.p0(i64 8, ptr nonnull %3) #16
  ret ptr %.033
}